target datalayout = "e-m:e-p270:32:32-p271:32:32-p272:64:64-i64:64-i128:128-f80:128-n8:16:32:64-S128"
target triple = "x86_64-pc-linux-gnu"

; Function Attrs: nounwind uwtable
define internal i32 @check_posix_syntax(ptr noundef %0, ptr noundef %1, ptr noundef %2) #0 {
  %4 = alloca i32, align 4
  %5 = alloca ptr, align 8
  %6 = alloca ptr, align 8
  %7 = alloca ptr, align 8
  %8 = alloca i8, align 1
  store ptr %0, ptr %5, align 8
  store ptr %1, ptr %6, align 8
  store ptr %2, ptr %7, align 8
  %9 = load ptr, ptr %5, align 8
  %10 = getelementptr inbounds i8, ptr %9, i32 1
  store ptr %10, ptr %5, align 8
  %11 = load i8, ptr %9, align 1
  store i8 %11, ptr %8, align 1
  br label %12

12:                                               ; preds = %77, %3
  %13 = load ptr, ptr %6, align 8
  %14 = load ptr, ptr %5, align 8
  %15 = ptrtoint ptr %13 to i64
  %16 = ptrtoint ptr %14 to i64
  %17 = sub i64 %15, %16
  %18 = icmp sge i64 %17, 2
  br i1 %18, label %19, label %80

19:                                               ; preds = %12
  %20 = load ptr, ptr %5, align 8
  %21 = load i8, ptr %20, align 1
  %22 = zext i8 %21 to i32
  %23 = icmp eq i32 %22, 92
  br i1 %23, label %24, label %39

24:                                               ; preds = %19
  %25 = load ptr, ptr %5, align 8
  %26 = getelementptr inbounds i8, ptr %25, i64 1
  %27 = load i8, ptr %26, align 1
  %28 = zext i8 %27 to i32
  %29 = icmp eq i32 %28, 93
  br i1 %29, label %36, label %30

30:                                               ; preds = %24
  %31 = load ptr, ptr %5, align 8
  %32 = getelementptr inbounds i8, ptr %31, i64 1
  %33 = load i8, ptr %32, align 1
  %34 = zext i8 %33 to i32
  %35 = icmp eq i32 %34, 92
  br i1 %35, label %36, label %39

36:                                               ; preds = %30, %24
  %37 = load ptr, ptr %5, align 8
  %38 = getelementptr inbounds i8, ptr %37, i32 1
  store ptr %38, ptr %5, align 8
  br label %76

39:                                               ; preds = %30, %19
  %40 = load ptr, ptr %5, align 8
  %41 = load i8, ptr %40, align 1
  %42 = zext i8 %41 to i32
  %43 = icmp eq i32 %42, 91
  br i1 %43, label %44, label %52

44:                                               ; preds = %39
  %45 = load ptr, ptr %5, align 8
  %46 = getelementptr inbounds i8, ptr %45, i64 1
  %47 = load i8, ptr %46, align 1
  %48 = zext i8 %47 to i32
  %49 = load i8, ptr %8, align 1
  %50 = zext i8 %49 to i32
  %51 = icmp eq i32 %48, %50
  br i1 %51, label %57, label %52

52:                                               ; preds = %44, %39
  %53 = load ptr, ptr %5, align 8
  %54 = load i8, ptr %53, align 1
  %55 = zext i8 %54 to i32
  %56 = icmp eq i32 %55, 93
  br i1 %56, label %57, label %58

57:                                               ; preds = %52, %44
  store i32 0, ptr %4, align 4
  br label %81

58:                                               ; preds = %52
  %59 = load ptr, ptr %5, align 8
  %60 = load i8, ptr %59, align 1
  %61 = zext i8 %60 to i32
  %62 = load i8, ptr %8, align 1
  %63 = zext i8 %62 to i32
  %64 = icmp eq i32 %61, %63
  br i1 %64, label %65, label %74

65:                                               ; preds = %58
  %66 = load ptr, ptr %5, align 8
  %67 = getelementptr inbounds i8, ptr %66, i64 1
  %68 = load i8, ptr %67, align 1
  %69 = zext i8 %68 to i32
  %70 = icmp eq i32 %69, 93
  br i1 %70, label %71, label %74

71:                                               ; preds = %65
  %72 = load ptr, ptr %5, align 8
  %73 = load ptr, ptr %7, align 8
  store ptr %72, ptr %73, align 8
  store i32 1, ptr %4, align 4
  br label %81

74:                                               ; preds = %65, %58
  br label %75

75:                                               ; preds = %74
  br label %76

76:                                               ; preds = %75, %36
  br label %77

77:                                               ; preds = %76
  %78 = load ptr, ptr %5, align 8
  %79 = getelementptr inbounds i8, ptr %78, i32 1
  store ptr %79, ptr %5, align 8
  br label %12

80:                                               ; preds = %12
  store i32 0, ptr %4, align 4
  br label %81

81:                                               ; preds = %80, %71, %57
  %82 = load i32, ptr %4, align 4
  ret i32 %82
}