; Function Attrs: nofree norecurse nosync nounwind memory(read, argmem: readwrite, inaccessiblemem: none) uwtable
define internal fastcc noundef i32 @check_posix_syntax(ptr noundef %0, ptr noundef %1, ptr nocapture noundef writeonly %2) unnamed_addr #4 {
  %4 = load i8, ptr %0, align 1
  %5 = ptrtoint ptr %1 to i64
  %.01722 = getelementptr inbounds i8, ptr %0, i64 1
  %6 = ptrtoint ptr %.01722 to i64
  %7 = sub i64 %5, %6
  %8 = icmp sgt i64 %7, 1
  br i1 %8, label %.lr.ph, label %.loopexit

.lr.ph:                                           ; preds = %3, %24
  %.01724 = phi ptr [ %.017, %24 ], [ %.01722, %3 ]
  %.pn23 = phi ptr [ %.1, %24 ], [ %0, %3 ]
  %9 = load i8, ptr %.01724, align 1
  switch i8 %9, label %.thread20 [
    i8 92, label %10
    i8 91, label %14
    i8 93, label %.loopexit
  ]

10:                                               ; preds = %.lr.ph
  %11 = getelementptr inbounds i8, ptr %.pn23, i64 2
  %12 = load i8, ptr %11, align 1
  %13 = and i8 %12, -2
  %switch = icmp eq i8 %13, 92
  br i1 %switch, label %24, label %.thread20

14:                                               ; preds = %.lr.ph
  %15 = getelementptr inbounds i8, ptr %.pn23, i64 2
  %16 = load i8, ptr %15, align 1
  %17 = icmp eq i8 %16, %4
  br i1 %17, label %.loopexit, label %.thread20

.thread20:                                        ; preds = %.lr.ph, %10, %14
  %18 = icmp eq i8 %9, %4
  br i1 %18, label %19, label %24

19:                                               ; preds = %.thread20
  %20 = getelementptr inbounds i8, ptr %.pn23, i64 2
  %21 = load i8, ptr %20, align 1
  %22 = icmp eq i8 %21, 93
  br i1 %22, label %23, label %24

23:                                               ; preds = %19
  store ptr %.01724, ptr %2, align 8
  br label %.loopexit

24:                                               ; preds = %10, %.thread20, %19
  %.1 = phi ptr [ %.01724, %19 ], [ %.01724, %.thread20 ], [ %11, %10 ]
  %.017 = getelementptr inbounds i8, ptr %.1, i64 1
  %25 = ptrtoint ptr %.017 to i64
  %26 = sub i64 %5, %25
  %27 = icmp sgt i64 %26, 1
  br i1 %27, label %.lr.ph, label %.loopexit

.loopexit:                                        ; preds = %14, %24, %.lr.ph, %3, %23
  %.0 = phi i32 [ 1, %23 ], [ 0, %3 ], [ 0, %.lr.ph ], [ 0, %24 ], [ 0, %14 ]
  ret i32 %.0
}